; Function Attrs: nounwind uwtable
define internal fastcc range(i32 0, 2) i32 @push_BN(ptr noundef captures(none) %0, ptr noundef %1, ptr noundef %2, i64 noundef %3, i32 noundef range(i32 1, 3) %4) unnamed_addr #0 {
  %.not = icmp eq ptr %2, null
  br i1 %.not, label %24, label %6

6:                                                ; preds = %5
  %7 = icmp eq i32 %4, 2
  br i1 %7, label %8, label %11

8:                                                ; preds = %6
  %9 = tail call i32 @BN_is_negative(ptr noundef nonnull %2) #7
  %.not27 = icmp eq i32 %9, 0
  br i1 %.not27, label %11, label %10

10:                                               ; preds = %8
  tail call void @ERR_new() #7
  tail call void @ERR_set_debug(ptr noundef nonnull @.str, i32 noundef 205, ptr noundef nonnull @__func__.push_BN) #7
  tail call void (i32, i32, ptr, ...) @ERR_set_error(i32 noundef 15, i32 noundef 524556, ptr noundef nonnull @.str.1) #7
  br label %param_push.exit.thread

11:                                               ; preds = %8, %6
  %12 = tail call i32 @BN_num_bits(ptr noundef nonnull %2) #7
  %13 = icmp slt i32 %12, -14
  br i1 %13, label %14, label %15

14:                                               ; preds = %11
  tail call void @ERR_new() #7
  tail call void @ERR_set_debug(ptr noundef nonnull @.str, i32 noundef 212, ptr noundef nonnull @__func__.push_BN) #7
  tail call void (i32, i32, ptr, ...) @ERR_set_error(i32 noundef 15, i32 noundef 115, ptr noundef null) #7
  br label %param_push.exit.thread

15:                                               ; preds = %11
  %16 = add nsw i32 %12, 7
  %17 = sdiv i32 %16, 8
  %18 = zext nneg i32 %17 to i64
  %19 = icmp ult i64 %3, %18
  br i1 %19, label %20, label %21

20:                                               ; preds = %15
  tail call void @ERR_new() #7
  tail call void @ERR_set_debug(ptr noundef nonnull @.str, i32 noundef 216, ptr noundef nonnull @__func__.push_BN) #7
  tail call void (i32, i32, ptr, ...) @ERR_set_error(i32 noundef 15, i32 noundef 116, ptr noundef null) #7
  br label %param_push.exit.thread

21:                                               ; preds = %15
  %22 = tail call i32 @BN_get_flags(ptr noundef nonnull %2, i32 noundef 8) #7
  %23 = icmp eq i32 %22, 8
  %spec.select = zext i1 %23 to i32
  %spec.select28 = tail call i64 @llvm.umax.i64(i64 %3, i64 1)
  br label %24

24:                                               ; preds = %21, %5
  %.022 = phi i64 [ %3, %5 ], [ %spec.select28, %21 ]
  %.021 = phi i32 [ 0, %5 ], [ %spec.select, %21 ]
  %25 = tail call noalias ptr @CRYPTO_zalloc(i64 noundef 56, ptr noundef nonnull @.str, i32 noundef 55) #7
  %26 = icmp eq ptr %25, null
  br i1 %26, label %param_push.exit.thread, label %27

27:                                               ; preds = %24
  store ptr %1, ptr %25, align 8, !tbaa !14
  %28 = getelementptr inbounds nuw i8, ptr %25, i64 8
  store i32 %4, ptr %28, align 8, !tbaa !18
  %29 = getelementptr inbounds nuw i8, ptr %25, i64 16
  store i64 %.022, ptr %29, align 8, !tbaa !19
  %30 = tail call i64 @ossl_param_bytes_to_blocks(i64 noundef %.022) #7
  %31 = getelementptr inbounds nuw i8, ptr %25, i64 24
  store i64 %30, ptr %31, align 8, !tbaa !20
  %32 = getelementptr inbounds nuw i8, ptr %25, i64 12
  store i32 %.021, ptr %32, align 4, !tbaa !21
  %.not.i = icmp eq i32 %.021, 0
  br i1 %.not.i, label %37, label %33

33:                                               ; preds = %27
  %34 = getelementptr inbounds nuw i8, ptr %0, i64 8
  %35 = load i64, ptr %34, align 8, !tbaa !27
  %36 = add i64 %35, %30
  store i64 %36, ptr %34, align 8, !tbaa !27
  br label %40

37:                                               ; preds = %27
  %38 = load i64, ptr %0, align 8, !tbaa !22
  %39 = add i64 %38, %30
  store i64 %39, ptr %0, align 8, !tbaa !22
  br label %40

40:                                               ; preds = %37, %33
  %41 = getelementptr inbounds nuw i8, ptr %0, i64 16
  %42 = load ptr, ptr %41, align 8, !tbaa !3
  %43 = tail call i32 @OPENSSL_sk_push(ptr noundef %42, ptr noundef nonnull %25) #7
  %44 = icmp slt i32 %43, 1
  br i1 %44, label %45, label %param_push.exit

45:                                               ; preds = %40
  tail call void @CRYPTO_free(ptr noundef nonnull %25, ptr noundef nonnull @.str, i32 noundef 68) #7
  br label %param_push.exit.thread

param_push.exit:                                  ; preds = %40
  %46 = getelementptr inbounds nuw i8, ptr %25, i64 32
  store ptr %2, ptr %46, align 8, !tbaa !26
  br label %param_push.exit.thread

param_push.exit.thread:                           ; preds = %45, %24, %param_push.exit, %20, %14, %10
  %.0 = phi i32 [ 0, %10 ], [ 0, %14 ], [ 0, %20 ], [ 1, %param_push.exit ], [ 0, %24 ], [ 0, %45 ]
  ret i32 %.0
}